; Function Attrs: mustprogress uwtable
define noundef zeroext i1 @_ZNK7rocksdb15BlockBasedTable22PrefixExtractorChangedEPKNS_14SliceTransformE(ptr nocapture noundef nonnull readonly align 8 dereferenceable(24) %this, ptr noundef %prefix_extractor) local_unnamed_addr #3 align 2 {
entry:
  %cmp = icmp eq ptr %prefix_extractor, null
  br i1 %cmp, label %return, label %if.else

if.else:                                          ; preds = %entry
  %rep_ = getelementptr inbounds i8, ptr %this, i64 8
  %0 = load ptr, ptr %rep_, align 8
  %table_prefix_extractor = getelementptr inbounds i8, ptr %0, i64 520
  %1 = load ptr, ptr %table_prefix_extractor, align 8
  %cmp2 = icmp eq ptr %1, %prefix_extractor
  br i1 %cmp2, label %return, label %if.else4

if.else4:                                         ; preds = %if.else
  %table_properties = getelementptr inbounds i8, ptr %0, i64 480
  %2 = load ptr, ptr %table_properties, align 8
  %call7 = tail call fastcc noundef zeroext i1 @_ZN7rocksdb12_GLOBAL__N_128PrefixExtractorChangedHelperEPKNS_15TablePropertiesEPKNS_14SliceTransformE(ptr noundef %2, ptr noundef nonnull %prefix_extractor)
  br label %return

return:                                           ; preds = %if.else, %entry, %if.else4
  %retval.0 = phi i1 [ %call7, %if.else4 ], [ true, %entry ], [ false, %if.else ]
  ret i1 %retval.0
}